
Interupts.elf:     file format elf32-avr

Sections:
Idx Name          Size      VMA       LMA       File off  Algn
  0 .data         00000000  00800200  00800200  000001d2  2**0
                  CONTENTS, ALLOC, LOAD, DATA
  1 .text         0000017e  00000000  00000000  00000054  2**1
                  CONTENTS, ALLOC, LOAD, READONLY, CODE
  2 .comment      00000030  00000000  00000000  000001d2  2**0
                  CONTENTS, READONLY
  3 .note.gnu.avr.deviceinfo 00000040  00000000  00000000  00000204  2**2
                  CONTENTS, READONLY
  4 .debug_aranges 00000058  00000000  00000000  00000244  2**0
                  CONTENTS, READONLY, DEBUGGING
  5 .debug_info   00000cfc  00000000  00000000  0000029c  2**0
                  CONTENTS, READONLY, DEBUGGING
  6 .debug_abbrev 00000bab  00000000  00000000  00000f98  2**0
                  CONTENTS, READONLY, DEBUGGING
  7 .debug_line   00000365  00000000  00000000  00001b43  2**0
                  CONTENTS, READONLY, DEBUGGING
  8 .debug_frame  000000b4  00000000  00000000  00001ea8  2**2
                  CONTENTS, READONLY, DEBUGGING
  9 .debug_str    0000057a  00000000  00000000  00001f5c  2**0
                  CONTENTS, READONLY, DEBUGGING
 10 .debug_loc    00000063  00000000  00000000  000024d6  2**0
                  CONTENTS, READONLY, DEBUGGING
 11 .debug_ranges 00000048  00000000  00000000  00002539  2**0
                  CONTENTS, READONLY, DEBUGGING

Disassembly of section .text:

00000000 <__vectors>:
   0:	71 c0       	rjmp	.+226    	; 0xe4 <__ctors_end>
   2:	00 00       	nop
   4:	79 c0       	rjmp	.+242    	; 0xf8 <__bad_interrupt>
   6:	00 00       	nop
   8:	77 c0       	rjmp	.+238    	; 0xf8 <__bad_interrupt>
   a:	00 00       	nop
   c:	75 c0       	rjmp	.+234    	; 0xf8 <__bad_interrupt>
   e:	00 00       	nop
  10:	73 c0       	rjmp	.+230    	; 0xf8 <__bad_interrupt>
  12:	00 00       	nop
  14:	71 c0       	rjmp	.+226    	; 0xf8 <__bad_interrupt>
  16:	00 00       	nop
  18:	6f c0       	rjmp	.+222    	; 0xf8 <__bad_interrupt>
  1a:	00 00       	nop
  1c:	6d c0       	rjmp	.+218    	; 0xf8 <__bad_interrupt>
  1e:	00 00       	nop
  20:	6b c0       	rjmp	.+214    	; 0xf8 <__bad_interrupt>
  22:	00 00       	nop
  24:	69 c0       	rjmp	.+210    	; 0xf8 <__bad_interrupt>
  26:	00 00       	nop
  28:	67 c0       	rjmp	.+206    	; 0xf8 <__bad_interrupt>
  2a:	00 00       	nop
  2c:	65 c0       	rjmp	.+202    	; 0xf8 <__bad_interrupt>
  2e:	00 00       	nop
  30:	63 c0       	rjmp	.+198    	; 0xf8 <__bad_interrupt>
  32:	00 00       	nop
  34:	61 c0       	rjmp	.+194    	; 0xf8 <__bad_interrupt>
  36:	00 00       	nop
  38:	5f c0       	rjmp	.+190    	; 0xf8 <__bad_interrupt>
  3a:	00 00       	nop
  3c:	5d c0       	rjmp	.+186    	; 0xf8 <__bad_interrupt>
  3e:	00 00       	nop
  40:	5b c0       	rjmp	.+182    	; 0xf8 <__bad_interrupt>
  42:	00 00       	nop
  44:	59 c0       	rjmp	.+178    	; 0xf8 <__bad_interrupt>
  46:	00 00       	nop
  48:	57 c0       	rjmp	.+174    	; 0xf8 <__bad_interrupt>
  4a:	00 00       	nop
  4c:	55 c0       	rjmp	.+170    	; 0xf8 <__bad_interrupt>
  4e:	00 00       	nop
  50:	6f c0       	rjmp	.+222    	; 0x130 <__vector_20>
  52:	00 00       	nop
  54:	51 c0       	rjmp	.+162    	; 0xf8 <__bad_interrupt>
  56:	00 00       	nop
  58:	4f c0       	rjmp	.+158    	; 0xf8 <__bad_interrupt>
  5a:	00 00       	nop
  5c:	4d c0       	rjmp	.+154    	; 0xf8 <__bad_interrupt>
  5e:	00 00       	nop
  60:	4b c0       	rjmp	.+150    	; 0xf8 <__bad_interrupt>
  62:	00 00       	nop
  64:	49 c0       	rjmp	.+146    	; 0xf8 <__bad_interrupt>
  66:	00 00       	nop
  68:	47 c0       	rjmp	.+142    	; 0xf8 <__bad_interrupt>
  6a:	00 00       	nop
  6c:	45 c0       	rjmp	.+138    	; 0xf8 <__bad_interrupt>
  6e:	00 00       	nop
  70:	43 c0       	rjmp	.+134    	; 0xf8 <__bad_interrupt>
  72:	00 00       	nop
  74:	41 c0       	rjmp	.+130    	; 0xf8 <__bad_interrupt>
  76:	00 00       	nop
  78:	3f c0       	rjmp	.+126    	; 0xf8 <__bad_interrupt>
  7a:	00 00       	nop
  7c:	3d c0       	rjmp	.+122    	; 0xf8 <__bad_interrupt>
  7e:	00 00       	nop
  80:	3b c0       	rjmp	.+118    	; 0xf8 <__bad_interrupt>
  82:	00 00       	nop
  84:	39 c0       	rjmp	.+114    	; 0xf8 <__bad_interrupt>
  86:	00 00       	nop
  88:	37 c0       	rjmp	.+110    	; 0xf8 <__bad_interrupt>
  8a:	00 00       	nop
  8c:	35 c0       	rjmp	.+106    	; 0xf8 <__bad_interrupt>
  8e:	00 00       	nop
  90:	33 c0       	rjmp	.+102    	; 0xf8 <__bad_interrupt>
  92:	00 00       	nop
  94:	31 c0       	rjmp	.+98     	; 0xf8 <__bad_interrupt>
  96:	00 00       	nop
  98:	2f c0       	rjmp	.+94     	; 0xf8 <__bad_interrupt>
  9a:	00 00       	nop
  9c:	2d c0       	rjmp	.+90     	; 0xf8 <__bad_interrupt>
  9e:	00 00       	nop
  a0:	2b c0       	rjmp	.+86     	; 0xf8 <__bad_interrupt>
  a2:	00 00       	nop
  a4:	29 c0       	rjmp	.+82     	; 0xf8 <__bad_interrupt>
  a6:	00 00       	nop
  a8:	27 c0       	rjmp	.+78     	; 0xf8 <__bad_interrupt>
  aa:	00 00       	nop
  ac:	25 c0       	rjmp	.+74     	; 0xf8 <__bad_interrupt>
  ae:	00 00       	nop
  b0:	23 c0       	rjmp	.+70     	; 0xf8 <__bad_interrupt>
  b2:	00 00       	nop
  b4:	21 c0       	rjmp	.+66     	; 0xf8 <__bad_interrupt>
  b6:	00 00       	nop
  b8:	1f c0       	rjmp	.+62     	; 0xf8 <__bad_interrupt>
  ba:	00 00       	nop
  bc:	1d c0       	rjmp	.+58     	; 0xf8 <__bad_interrupt>
  be:	00 00       	nop
  c0:	1b c0       	rjmp	.+54     	; 0xf8 <__bad_interrupt>
  c2:	00 00       	nop
  c4:	19 c0       	rjmp	.+50     	; 0xf8 <__bad_interrupt>
  c6:	00 00       	nop
  c8:	17 c0       	rjmp	.+46     	; 0xf8 <__bad_interrupt>
  ca:	00 00       	nop
  cc:	15 c0       	rjmp	.+42     	; 0xf8 <__bad_interrupt>
  ce:	00 00       	nop
  d0:	13 c0       	rjmp	.+38     	; 0xf8 <__bad_interrupt>
  d2:	00 00       	nop
  d4:	11 c0       	rjmp	.+34     	; 0xf8 <__bad_interrupt>
  d6:	00 00       	nop
  d8:	0f c0       	rjmp	.+30     	; 0xf8 <__bad_interrupt>
  da:	00 00       	nop
  dc:	0d c0       	rjmp	.+26     	; 0xf8 <__bad_interrupt>
  de:	00 00       	nop
  e0:	0b c0       	rjmp	.+22     	; 0xf8 <__bad_interrupt>
	...

000000e4 <__ctors_end>:
  e4:	11 24       	eor	r1, r1
  e6:	1f be       	out	0x3f, r1	; 63
  e8:	cf ef       	ldi	r28, 0xFF	; 255
  ea:	d1 e2       	ldi	r29, 0x21	; 33
  ec:	de bf       	out	0x3e, r29	; 62
  ee:	cd bf       	out	0x3d, r28	; 61
  f0:	00 e0       	ldi	r16, 0x00	; 0
  f2:	0c bf       	out	0x3c, r16	; 60
  f4:	3f d0       	rcall	.+126    	; 0x174 <main>
  f6:	41 c0       	rjmp	.+130    	; 0x17a <_exit>

000000f8 <__bad_interrupt>:
  f8:	83 cf       	rjmp	.-250    	; 0x0 <__vectors>

000000fa <LED_init>:
void green_LED_OFF(){
	PORTH |= (1 << PH5);
}

void green_LED_ON(){
	PORTH &= ~(1 << PH5);
  fa:	e1 e0       	ldi	r30, 0x01	; 1
  fc:	f1 e0       	ldi	r31, 0x01	; 1
  fe:	80 81       	ld	r24, Z
 100:	80 64       	ori	r24, 0x40	; 64
 102:	80 83       	st	Z, r24
 104:	80 81       	ld	r24, Z
 106:	80 62       	ori	r24, 0x20	; 32
 108:	80 83       	st	Z, r24
 10a:	08 95       	ret

0000010c <I_init>:
}

void I_init(void){
	TCNT1 = 65535 - (F_CPU/1024);
 10c:	86 ef       	ldi	r24, 0xF6	; 246
 10e:	92 ec       	ldi	r25, 0xC2	; 194
 110:	90 93 85 00 	sts	0x0085, r25	; 0x800085 <__TEXT_REGION_LENGTH__+0x7c0085>
 114:	80 93 84 00 	sts	0x0084, r24	; 0x800084 <__TEXT_REGION_LENGTH__+0x7c0084>
	TCCR1B = (1 << CS10) | (1 << CS12);
 118:	85 e0       	ldi	r24, 0x05	; 5
 11a:	80 93 81 00 	sts	0x0081, r24	; 0x800081 <__TEXT_REGION_LENGTH__+0x7c0081>
	
	TCCR1A = 0x00;
 11e:	10 92 80 00 	sts	0x0080, r1	; 0x800080 <__TEXT_REGION_LENGTH__+0x7c0080>
	
	TIMSK1 |= (1 << TOIE1);
 122:	ef e6       	ldi	r30, 0x6F	; 111
 124:	f0 e0       	ldi	r31, 0x00	; 0
 126:	80 81       	ld	r24, Z
 128:	81 60       	ori	r24, 0x01	; 1
 12a:	80 83       	st	Z, r24
	
	sei();
 12c:	78 94       	sei
 12e:	08 95       	ret

00000130 <__vector_20>:
}

ISR (TIMER1_OVF_vect){
 130:	1f 92       	push	r1
 132:	0f 92       	push	r0
 134:	0f b6       	in	r0, 0x3f	; 63
 136:	0f 92       	push	r0
 138:	11 24       	eor	r1, r1
 13a:	0b b6       	in	r0, 0x3b	; 59
 13c:	0f 92       	push	r0
 13e:	8f 93       	push	r24
 140:	9f 93       	push	r25
 142:	ef 93       	push	r30
 144:	ff 93       	push	r31
	PORTH ^= (1 << PH6);
 146:	e2 e0       	ldi	r30, 0x02	; 2
 148:	f1 e0       	ldi	r31, 0x01	; 1
 14a:	90 81       	ld	r25, Z
 14c:	80 e4       	ldi	r24, 0x40	; 64
 14e:	89 27       	eor	r24, r25
 150:	80 83       	st	Z, r24
	TCNT1 = 65535 - (F_CPU/1024);
 152:	86 ef       	ldi	r24, 0xF6	; 246
 154:	92 ec       	ldi	r25, 0xC2	; 194
 156:	90 93 85 00 	sts	0x0085, r25	; 0x800085 <__TEXT_REGION_LENGTH__+0x7c0085>
 15a:	80 93 84 00 	sts	0x0084, r24	; 0x800084 <__TEXT_REGION_LENGTH__+0x7c0084>
}
 15e:	ff 91       	pop	r31
 160:	ef 91       	pop	r30
 162:	9f 91       	pop	r25
 164:	8f 91       	pop	r24
 166:	0f 90       	pop	r0
 168:	0b be       	out	0x3b, r0	; 59
 16a:	0f 90       	pop	r0
 16c:	0f be       	out	0x3f, r0	; 63
 16e:	0f 90       	pop	r0
 170:	1f 90       	pop	r1
 172:	18 95       	reti

00000174 <main>:

int main(void)
{
    LED_init();
 174:	c2 df       	rcall	.-124    	; 0xfa <LED_init>
	I_init();
 176:	ca df       	rcall	.-108    	; 0x10c <I_init>
 178:	ff cf       	rjmp	.-2      	; 0x178 <main+0x4>

0000017a <_exit>:
 17a:	f8 94       	cli

0000017c <__stop_program>:
 17c:	ff cf       	rjmp	.-2      	; 0x17c <__stop_program>
